; Function Attrs: nounwind uwtable
define ptr @l_Lean_Elab_Tactic_BVDecide_Frontend_Normalize_passPipeline___lambda__2(ptr noundef readonly captures(none) %0, ptr noundef %1, ptr noundef %2, ptr readnone captures(none) %3, ptr noundef %4, ptr noundef %5, ptr noundef %6, ptr noundef %7, ptr noundef %8, ptr noundef %9, ptr noundef %10) local_unnamed_addr #0 {
  %12 = load ptr, ptr @l_Lean_Elab_Tactic_BVDecide_Frontend_Normalize_passPipeline___lambda__2___closed__1, align 8, !tbaa !9
  %13 = getelementptr inbounds nuw i8, ptr %0, i64 28
  %14 = load i8, ptr %13, align 1, !tbaa !13
  %15 = icmp eq i8 %14, 0
  br i1 %15, label %16, label %26

16:                                               ; preds = %11
  %17 = ptrtoint ptr %1 to i64
  %18 = and i64 %17, 1
  %.not = icmp eq i64 %18, 0
  br i1 %.not, label %19, label %lean_dec.exit

19:                                               ; preds = %16
  %20 = load i32, ptr %1, align 4, !tbaa !4
  %21 = icmp sgt i32 %20, 1
  br i1 %21, label %22, label %24, !prof !14

22:                                               ; preds = %19
  %23 = add nsw i32 %20, -1
  store i32 %23, ptr %1, align 4, !tbaa !4
  br label %lean_dec.exit

24:                                               ; preds = %19
  %.not.i = icmp eq i32 %20, 0
  br i1 %.not.i, label %lean_dec.exit, label %25

25:                                               ; preds = %24
  tail call void @lean_dec_ref_cold(ptr noundef nonnull %1) #4
  br label %lean_dec.exit

26:                                               ; preds = %11
  %27 = load ptr, ptr @l_Lean_Elab_Tactic_BVDecide_Frontend_Normalize_embeddedConstraintPass, align 8, !tbaa !9
  tail call void @lean_inc_heartbeat() #4
  %28 = tail call noalias ptr @mi_malloc_small(i64 noundef 24) #4
  %29 = icmp eq ptr %28, null
  br i1 %29, label %30, label %lean_alloc_ctor.exit

30:                                               ; preds = %26
  tail call void @lean_internal_panic_out_of_memory() #5
  unreachable

lean_alloc_ctor.exit:                             ; preds = %26
  %31 = getelementptr inbounds nuw i8, ptr %28, i64 4
  store i32 1, ptr %28, align 4, !tbaa !4
  store i32 16908312, ptr %31, align 4
  %32 = getelementptr inbounds nuw i8, ptr %28, i64 8
  store ptr %27, ptr %32, align 8, !tbaa !9
  %33 = getelementptr inbounds nuw i8, ptr %28, i64 16
  store ptr %1, ptr %33, align 8, !tbaa !9
  %34 = tail call ptr @l_List_appendTR___rarg(ptr noundef %2, ptr noundef nonnull %28) #4
  br label %lean_dec.exit

lean_dec.exit:                                    ; preds = %16, %22, %24, %25, %lean_alloc_ctor.exit
  %.sink = phi ptr [ %34, %lean_alloc_ctor.exit ], [ %2, %25 ], [ %2, %24 ], [ %2, %22 ], [ %2, %16 ]
  %35 = tail call ptr @lean_apply_9(ptr noundef %12, ptr noundef %.sink, ptr noundef nonnull inttoptr (i64 1 to ptr), ptr noundef %4, ptr noundef %5, ptr noundef %6, ptr noundef %7, ptr noundef %8, ptr noundef %9, ptr noundef %10) #4
  ret ptr %35
}